target datalayout = "e-m:e-p270:32:32-p271:32:32-p272:64:64-i64:64-i128:128-f80:128-n8:16:32:64-S128"
target triple = "x86_64-pc-linux-gnu"

%struct.cl_fmap = type { ptr, ptr, ptr, i64, i64, i64, i64, i8, i8, i8, i64, i64, i64, i64, ptr, ptr, ptr, ptr, ptr, ptr, ptr, i8, [16 x i8], i8, [20 x i8], i8, [32 x i8], ptr, ptr }

@.str.23 = private unnamed_addr constant [41 x i8] c"fmap_get_hash: Unsupported hash type %u\0A\00", align 1
@.str.24 = private unnamed_addr constant [4 x i8] c"md5\00", align 1
@.str.25 = private unnamed_addr constant [5 x i8] c"sha1\00", align 1
@.str.26 = private unnamed_addr constant [7 x i8] c"sha256\00", align 1
@.str.27 = private unnamed_addr constant [49 x i8] c"fmap_get_hash: error initializing new md5 hash!\0A\00", align 1
@.str.28 = private unnamed_addr constant [53 x i8] c"fmap_get_hash: error reading while generating hash!\0A\00", align 1
@.str.29 = private unnamed_addr constant [40 x i8] c"fmap_get_hash: error calculating hash!\0A\00", align 1

; Function Attrs: nounwind uwtable
define internal ptr @fmap_need_off_once(ptr noundef %0, i64 noundef %1, i64 noundef %2) #0 {
  %4 = alloca ptr, align 8
  %5 = alloca i64, align 8
  %6 = alloca i64, align 8
  store ptr %0, ptr %4, align 8
  store i64 %1, ptr %5, align 8
  store i64 %2, ptr %6, align 8
  %7 = load ptr, ptr %4, align 8
  %8 = getelementptr inbounds %struct.cl_fmap, ptr %7, i32 0, i32 15
  %9 = load ptr, ptr %8, align 8
  %10 = load ptr, ptr %4, align 8
  %11 = load i64, ptr %5, align 8
  %12 = load i64, ptr %6, align 8
  %13 = call ptr %9(ptr noundef %10, i64 noundef %11, i64 noundef %12, i32 noundef 0)
  ret ptr %13
}

; Function Attrs: nounwind uwtable
define i32 @fmap_get_hash(ptr noundef %0, ptr noundef %1, i32 noundef %2) #0 {
  %4 = alloca ptr, align 8
  %5 = alloca ptr, align 8
  %6 = alloca i32, align 4
  %7 = alloca i32, align 4
  %8 = alloca i64, align 8
  %9 = alloca i64, align 8
  %10 = alloca ptr, align 8
  %11 = alloca ptr, align 8
  %12 = alloca i64, align 8
  store ptr %0, ptr %4, align 8
  store ptr %1, ptr %5, align 8
  store i32 %2, ptr %6, align 4
  store i32 34, ptr %7, align 4
  store i64 0, ptr %9, align 8
  store ptr null, ptr %10, align 8
  %13 = load ptr, ptr %4, align 8
  %14 = getelementptr inbounds %struct.cl_fmap, ptr %13, i32 0, i32 13
  %15 = load i64, ptr %14, align 8
  store i64 %15, ptr %8, align 8
  %16 = load i32, ptr %6, align 4
  switch i32 %16, label %38 [
    i32 0, label %17
    i32 1, label %24
    i32 2, label %31
  ]

17:                                               ; preds = %3
  %18 = load ptr, ptr %4, align 8
  %19 = getelementptr inbounds %struct.cl_fmap, ptr %18, i32 0, i32 21
  %20 = load i8, ptr %19, align 8
  %21 = trunc i8 %20 to i1
  br i1 %21, label %22, label %23

22:                                               ; preds = %17
  br label %115

23:                                               ; preds = %17
  br label %40

24:                                               ; preds = %3
  %25 = load ptr, ptr %4, align 8
  %26 = getelementptr inbounds %struct.cl_fmap, ptr %25, i32 0, i32 23
  %27 = load i8, ptr %26, align 1
  %28 = trunc i8 %27 to i1
  br i1 %28, label %29, label %30

29:                                               ; preds = %24
  br label %115

30:                                               ; preds = %24
  br label %40

31:                                               ; preds = %3
  %32 = load ptr, ptr %4, align 8
  %33 = getelementptr inbounds %struct.cl_fmap, ptr %32, i32 0, i32 25
  %34 = load i8, ptr %33, align 2
  %35 = trunc i8 %34 to i1
  br i1 %35, label %36, label %37

36:                                               ; preds = %31
  br label %115

37:                                               ; preds = %31
  br label %40

38:                                               ; preds = %3
  %39 = load i32, ptr %6, align 4
  call void (ptr, ...) @cli_errmsg(ptr noundef @.str.23, i32 noundef %39)
  store i32 3, ptr %7, align 4
  br label %135

40:                                               ; preds = %37, %30, %23
  %41 = load i32, ptr %6, align 4
  switch i32 %41, label %48 [
    i32 0, label %42
    i32 1, label %44
    i32 2, label %46
  ]

42:                                               ; preds = %40
  %43 = call ptr @cl_hash_init(ptr noundef @.str.24)
  store ptr %43, ptr %10, align 8
  br label %50

44:                                               ; preds = %40
  %45 = call ptr @cl_hash_init(ptr noundef @.str.25)
  store ptr %45, ptr %10, align 8
  br label %50

46:                                               ; preds = %40
  %47 = call ptr @cl_hash_init(ptr noundef @.str.26)
  store ptr %47, ptr %10, align 8
  br label %50

48:                                               ; preds = %40
  %49 = load i32, ptr %6, align 4
  call void (ptr, ...) @cli_errmsg(ptr noundef @.str.23, i32 noundef %49)
  store i32 3, ptr %7, align 4
  br label %135

50:                                               ; preds = %46, %44, %42
  %51 = load ptr, ptr %10, align 8
  %52 = icmp ne ptr %51, null
  br i1 %52, label %54, label %53

53:                                               ; preds = %50
  call void (ptr, ...) @cli_errmsg(ptr noundef @.str.27)
  br label %135

54:                                               ; preds = %50
  br label %55

55:                                               ; preds = %85, %54
  %56 = load i64, ptr %8, align 8
  %57 = icmp ne i64 %56, 0
  br i1 %57, label %58, label %86

58:                                               ; preds = %55
  %59 = load i64, ptr %8, align 8
  %60 = icmp ult i64 %59, 10485760
  br i1 %60, label %61, label %63

61:                                               ; preds = %58
  %62 = load i64, ptr %8, align 8
  br label %64

63:                                               ; preds = %58
  br label %64

64:                                               ; preds = %63, %61
  %65 = phi i64 [ %62, %61 ], [ 10485760, %63 ]
  store i64 %65, ptr %12, align 8
  %66 = load ptr, ptr %4, align 8
  %67 = load i64, ptr %9, align 8
  %68 = load i64, ptr %12, align 8
  %69 = call ptr @fmap_need_off_once(ptr noundef %66, i64 noundef %67, i64 noundef %68)
  store ptr %69, ptr %11, align 8
  %70 = icmp ne ptr %69, null
  br i1 %70, label %72, label %71

71:                                               ; preds = %64
  call void (ptr, ...) @cli_errmsg(ptr noundef @.str.28)
  store i32 12, ptr %7, align 4
  br label %135

72:                                               ; preds = %64
  %73 = load i64, ptr %12, align 8
  %74 = load i64, ptr %8, align 8
  %75 = sub i64 %74, %73
  store i64 %75, ptr %8, align 8
  %76 = load i64, ptr %12, align 8
  %77 = load i64, ptr %9, align 8
  %78 = add i64 %77, %76
  store i64 %78, ptr %9, align 8
  %79 = load ptr, ptr %10, align 8
  %80 = load ptr, ptr %11, align 8
  %81 = load i64, ptr %12, align 8
  %82 = call i32 @cl_update_hash(ptr noundef %79, ptr noundef %80, i64 noundef %81)
  %83 = icmp ne i32 %82, 0
  br i1 %83, label %84, label %85

84:                                               ; preds = %72
  call void (ptr, ...) @cli_errmsg(ptr noundef @.str.29)
  store i32 12, ptr %7, align 4
  br label %135

85:                                               ; preds = %72
  br label %55

86:                                               ; preds = %55
  %87 = load i32, ptr %6, align 4
  switch i32 %87, label %112 [
    i32 0, label %88
    i32 1, label %96
    i32 2, label %104
  ]

88:                                               ; preds = %86
  %89 = load ptr, ptr %10, align 8
  %90 = load ptr, ptr %4, align 8
  %91 = getelementptr inbounds %struct.cl_fmap, ptr %90, i32 0, i32 22
  %92 = getelementptr inbounds [16 x i8], ptr %91, i64 0, i64 0
  %93 = call i32 @cl_finish_hash(ptr noundef %89, ptr noundef %92)
  %94 = load ptr, ptr %4, align 8
  %95 = getelementptr inbounds %struct.cl_fmap, ptr %94, i32 0, i32 21
  store i8 1, ptr %95, align 8
  br label %114

96:                                               ; preds = %86
  %97 = load ptr, ptr %10, align 8
  %98 = load ptr, ptr %4, align 8
  %99 = getelementptr inbounds %struct.cl_fmap, ptr %98, i32 0, i32 24
  %100 = getelementptr inbounds [20 x i8], ptr %99, i64 0, i64 0
  %101 = call i32 @cl_finish_hash(ptr noundef %97, ptr noundef %100)
  %102 = load ptr, ptr %4, align 8
  %103 = getelementptr inbounds %struct.cl_fmap, ptr %102, i32 0, i32 23
  store i8 1, ptr %103, align 1
  br label %114

104:                                              ; preds = %86
  %105 = load ptr, ptr %10, align 8
  %106 = load ptr, ptr %4, align 8
  %107 = getelementptr inbounds %struct.cl_fmap, ptr %106, i32 0, i32 26
  %108 = getelementptr inbounds [32 x i8], ptr %107, i64 0, i64 0
  %109 = call i32 @cl_finish_hash(ptr noundef %105, ptr noundef %108)
  %110 = load ptr, ptr %4, align 8
  %111 = getelementptr inbounds %struct.cl_fmap, ptr %110, i32 0, i32 25
  store i8 1, ptr %111, align 2
  br label %114

112:                                              ; preds = %86
  %113 = load i32, ptr %6, align 4
  call void (ptr, ...) @cli_errmsg(ptr noundef @.str.23, i32 noundef %113)
  store i32 3, ptr %7, align 4
  br label %135

114:                                              ; preds = %104, %96, %88
  store ptr null, ptr %10, align 8
  br label %115

115:                                              ; preds = %114, %36, %29, %22
  %116 = load i32, ptr %6, align 4
  switch i32 %116, label %132 [
    i32 0, label %117
    i32 1, label %122
    i32 2, label %127
  ]

117:                                              ; preds = %115
  %118 = load ptr, ptr %4, align 8
  %119 = getelementptr inbounds %struct.cl_fmap, ptr %118, i32 0, i32 22
  %120 = getelementptr inbounds [16 x i8], ptr %119, i64 0, i64 0
  %121 = load ptr, ptr %5, align 8
  store ptr %120, ptr %121, align 8
  br label %134

122:                                              ; preds = %115
  %123 = load ptr, ptr %4, align 8
  %124 = getelementptr inbounds %struct.cl_fmap, ptr %123, i32 0, i32 24
  %125 = getelementptr inbounds [20 x i8], ptr %124, i64 0, i64 0
  %126 = load ptr, ptr %5, align 8
  store ptr %125, ptr %126, align 8
  br label %134

127:                                              ; preds = %115
  %128 = load ptr, ptr %4, align 8
  %129 = getelementptr inbounds %struct.cl_fmap, ptr %128, i32 0, i32 26
  %130 = getelementptr inbounds [32 x i8], ptr %129, i64 0, i64 0
  %131 = load ptr, ptr %5, align 8
  store ptr %130, ptr %131, align 8
  br label %134

132:                                              ; preds = %115
  %133 = load i32, ptr %6, align 4
  call void (ptr, ...) @cli_errmsg(ptr noundef @.str.23, i32 noundef %133)
  store i32 3, ptr %7, align 4
  br label %135

134:                                              ; preds = %127, %122, %117
  store i32 0, ptr %7, align 4
  br label %135

135:                                              ; preds = %134, %132, %112, %84, %71, %53, %48, %38
  %136 = load ptr, ptr %10, align 8
  %137 = icmp ne ptr null, %136
  br i1 %137, label %138, label %140

138:                                              ; preds = %135
  %139 = load ptr, ptr %10, align 8
  call void @cl_hash_destroy(ptr noundef %139)
  br label %140

140:                                              ; preds = %138, %135
  %141 = load i32, ptr %7, align 4
  ret i32 %141
}